target datalayout = "e-m:e-p270:32:32-p271:32:32-p272:64:64-i64:64-i128:128-f80:128-n8:16:32:64-S128"
target triple = "x86_64-pc-linux-gnu"

%"class.icu_77::DictionaryMatcher" = type { ptr }
%"class.icu_77::BytesDictionaryMatcher" = type { %"class.icu_77::DictionaryMatcher", ptr, i32, ptr }

; Function Attrs: mustprogress nounwind uwtable
define noundef i32 @_ZNK6icu_7722BytesDictionaryMatcher9transformEi(ptr noundef nonnull align 8 dereferenceable(32) %0, i32 noundef %1) #0 align 2 {
  %3 = alloca i32, align 4
  %4 = alloca ptr, align 8
  %5 = alloca i32, align 4
  %6 = alloca i32, align 4
  %7 = alloca i32, align 4
  store ptr %0, ptr %4, align 8, !tbaa !43
  store i32 %1, ptr %5, align 4, !tbaa !19
  %8 = load ptr, ptr %4, align 8
  %9 = getelementptr inbounds nuw %"class.icu_77::BytesDictionaryMatcher", ptr %8, i32 0, i32 2
  %10 = load i32, ptr %9, align 8, !tbaa !48
  %11 = and i32 %10, 2130706432
  %12 = icmp eq i32 %11, 16777216
  br i1 %12, label %13, label %37

13:                                               ; preds = %2
  %14 = load i32, ptr %5, align 4, !tbaa !19
  %15 = icmp eq i32 %14, 8205
  br i1 %15, label %16, label %17

16:                                               ; preds = %13
  store i32 255, ptr %3, align 4
  br label %39

17:                                               ; preds = %13
  %18 = load i32, ptr %5, align 4, !tbaa !19
  %19 = icmp eq i32 %18, 8204
  br i1 %19, label %20, label %21

20:                                               ; preds = %17
  store i32 254, ptr %3, align 4
  br label %39

21:                                               ; preds = %17
  br label %22

22:                                               ; preds = %21
  call void @llvm.lifetime.start.p0(i64 4, ptr %6) #11
  %23 = load i32, ptr %5, align 4, !tbaa !19
  %24 = getelementptr inbounds nuw %"class.icu_77::BytesDictionaryMatcher", ptr %8, i32 0, i32 2
  %25 = load i32, ptr %24, align 8, !tbaa !48
  %26 = and i32 %25, 2097151
  %27 = sub nsw i32 %23, %26
  store i32 %27, ptr %6, align 4, !tbaa !19
  %28 = load i32, ptr %6, align 4, !tbaa !19
  %29 = icmp slt i32 %28, 0
  br i1 %29, label %33, label %30

30:                                               ; preds = %22
  %31 = load i32, ptr %6, align 4, !tbaa !19
  %32 = icmp slt i32 253, %31
  br i1 %32, label %33, label %34

33:                                               ; preds = %30, %22
  store i32 -1, ptr %3, align 4
  store i32 1, ptr %7, align 4
  br label %36

34:                                               ; preds = %30
  %35 = load i32, ptr %6, align 4, !tbaa !19
  store i32 %35, ptr %3, align 4
  store i32 1, ptr %7, align 4
  br label %36

36:                                               ; preds = %34, %33
  call void @llvm.lifetime.end.p0(i64 4, ptr %6) #11
  br label %39

37:                                               ; preds = %2
  %38 = load i32, ptr %5, align 4, !tbaa !19
  store i32 %38, ptr %3, align 4
  br label %39

39:                                               ; preds = %37, %36, %20, %16
  %40 = load i32, ptr %3, align 4
  ret i32 %40
}