; Function Attrs: mustprogress nofree norecurse nosync nounwind willreturn memory(argmem: read) uwtable
define noundef i32 @_ZNK6icu_7722BytesDictionaryMatcher9transformEi(ptr noundef nonnull readonly align 8 captures(none) dereferenceable(32) %0, i32 noundef %1) local_unnamed_addr #10 align 2 {
  %3 = getelementptr inbounds nuw i8, ptr %0, i64 16
  %4 = load i32, ptr %3, align 8, !tbaa !29
  %5 = and i32 %4, 2130706432
  %6 = icmp eq i32 %5, 16777216
  br i1 %6, label %7, label %12

7:                                                ; preds = %2
  switch i32 %1, label %9 [
    i32 8205, label %12
    i32 8204, label %8
  ]

8:                                                ; preds = %7
  br label %12

9:                                                ; preds = %7
  %10 = and i32 %4, 2097151
  %11 = sub nsw i32 %1, %10
  %or.cond = icmp ugt i32 %11, 253
  %. = select i1 %or.cond, i32 -1, i32 %11
  br label %12

12:                                               ; preds = %2, %7, %9, %8
  %.0 = phi i32 [ 254, %8 ], [ %., %9 ], [ 255, %7 ], [ %1, %2 ]
  ret i32 %.0
}